target datalayout = "e-m:e-p270:32:32-p271:32:32-p272:64:64-i64:64-i128:128-f80:128-n8:16:32:64-S128"
target triple = "x86_64-pc-linux-gnu"

%struct.ILookInStream = type { ptr, ptr, ptr, ptr }
%struct.CLookToRead = type { %struct.ILookInStream, ptr, i64, i64, [16384 x i8] }
%struct.ISeekInStream = type { ptr, ptr, i64 }

; Function Attrs: nounwind uwtable
define internal i32 @LookToRead_Read(ptr noundef %0, ptr noundef %1, ptr noundef %2) #0 {
  %4 = alloca i32, align 4
  %5 = alloca ptr, align 8
  %6 = alloca ptr, align 8
  %7 = alloca ptr, align 8
  %8 = alloca ptr, align 8
  %9 = alloca i64, align 8
  %10 = alloca i32, align 4
  store ptr %0, ptr %5, align 8, !tbaa !3
  store ptr %1, ptr %6, align 8, !tbaa !3
  store ptr %2, ptr %7, align 8, !tbaa !19
  call void @llvm.lifetime.start.p0(i64 8, ptr %8) #3
  %11 = load ptr, ptr %5, align 8, !tbaa !3
  store ptr %11, ptr %8, align 8, !tbaa !3
  call void @llvm.lifetime.start.p0(i64 8, ptr %9) #3
  %12 = load ptr, ptr %8, align 8, !tbaa !3
  %13 = getelementptr inbounds nuw %struct.CLookToRead, ptr %12, i32 0, i32 3
  %14 = load i64, ptr %13, align 8, !tbaa !29
  %15 = load ptr, ptr %8, align 8, !tbaa !3
  %16 = getelementptr inbounds nuw %struct.CLookToRead, ptr %15, i32 0, i32 2
  %17 = load i64, ptr %16, align 8, !tbaa !30
  %18 = sub i64 %14, %17
  store i64 %18, ptr %9, align 8, !tbaa !7
  %19 = load i64, ptr %9, align 8, !tbaa !7
  %20 = icmp eq i64 %19, 0
  br i1 %20, label %21, label %33

21:                                               ; preds = %3
  %22 = load ptr, ptr %8, align 8, !tbaa !3
  %23 = getelementptr inbounds nuw %struct.CLookToRead, ptr %22, i32 0, i32 1
  %24 = load ptr, ptr %23, align 8, !tbaa !31
  %25 = getelementptr inbounds nuw %struct.ISeekInStream, ptr %24, i32 0, i32 0
  %26 = load ptr, ptr %25, align 8, !tbaa !32
  %27 = load ptr, ptr %8, align 8, !tbaa !3
  %28 = getelementptr inbounds nuw %struct.CLookToRead, ptr %27, i32 0, i32 1
  %29 = load ptr, ptr %28, align 8, !tbaa !31
  %30 = load ptr, ptr %6, align 8, !tbaa !3
  %31 = load ptr, ptr %7, align 8, !tbaa !19
  %32 = call i32 %26(ptr noundef %29, ptr noundef %30, ptr noundef %31)
  store i32 %32, ptr %4, align 4
  store i32 1, ptr %10, align 4
  br label %58

33:                                               ; preds = %3
  %34 = load i64, ptr %9, align 8, !tbaa !7
  %35 = load ptr, ptr %7, align 8, !tbaa !19
  %36 = load i64, ptr %35, align 8, !tbaa !7
  %37 = icmp ugt i64 %34, %36
  br i1 %37, label %38, label %41

38:                                               ; preds = %33
  %39 = load ptr, ptr %7, align 8, !tbaa !19
  %40 = load i64, ptr %39, align 8, !tbaa !7
  store i64 %40, ptr %9, align 8, !tbaa !7
  br label %41

41:                                               ; preds = %38, %33
  %42 = load ptr, ptr %6, align 8, !tbaa !3
  %43 = load ptr, ptr %8, align 8, !tbaa !3
  %44 = getelementptr inbounds nuw %struct.CLookToRead, ptr %43, i32 0, i32 4
  %45 = getelementptr inbounds [16384 x i8], ptr %44, i64 0, i64 0
  %46 = load ptr, ptr %8, align 8, !tbaa !3
  %47 = getelementptr inbounds nuw %struct.CLookToRead, ptr %46, i32 0, i32 2
  %48 = load i64, ptr %47, align 8, !tbaa !30
  %49 = getelementptr inbounds nuw i8, ptr %45, i64 %48
  %50 = load i64, ptr %9, align 8, !tbaa !7
  call void @llvm.memcpy.p0.p0.i64(ptr align 1 %42, ptr align 1 %49, i64 %50, i1 false)
  %51 = load i64, ptr %9, align 8, !tbaa !7
  %52 = load ptr, ptr %8, align 8, !tbaa !3
  %53 = getelementptr inbounds nuw %struct.CLookToRead, ptr %52, i32 0, i32 2
  %54 = load i64, ptr %53, align 8, !tbaa !30
  %55 = add i64 %54, %51
  store i64 %55, ptr %53, align 8, !tbaa !30
  %56 = load i64, ptr %9, align 8, !tbaa !7
  %57 = load ptr, ptr %7, align 8, !tbaa !19
  store i64 %56, ptr %57, align 8, !tbaa !7
  store i32 0, ptr %4, align 4
  store i32 1, ptr %10, align 4
  br label %58

58:                                               ; preds = %41, %21
  call void @llvm.lifetime.end.p0(i64 8, ptr %9) #3
  call void @llvm.lifetime.end.p0(i64 8, ptr %8) #3
  %59 = load i32, ptr %4, align 4
  ret i32 %59
}