; Function Attrs: nounwind uwtable
define internal i32 @LookToRead_Read(ptr noundef captures(none) %0, ptr noundef %1, ptr noundef %2) #0 {
  %4 = getelementptr inbounds nuw i8, ptr %0, i64 48
  %5 = load i64, ptr %4, align 8, !tbaa !23
  %6 = getelementptr inbounds nuw i8, ptr %0, i64 40
  %7 = load i64, ptr %6, align 8, !tbaa !24
  %8 = icmp eq i64 %5, %7
  br i1 %8, label %9, label %14

9:                                                ; preds = %3
  %10 = getelementptr inbounds nuw i8, ptr %0, i64 32
  %11 = load ptr, ptr %10, align 8, !tbaa !25
  %12 = load ptr, ptr %11, align 8, !tbaa !26
  %13 = tail call i32 %12(ptr noundef nonnull %11, ptr noundef %1, ptr noundef %2) #7
  br label %21

14:                                               ; preds = %3
  %15 = sub i64 %5, %7
  %16 = load i64, ptr %2, align 8, !tbaa !3
  %spec.select = tail call i64 @llvm.umin.i64(i64 %15, i64 %16)
  %17 = getelementptr inbounds nuw i8, ptr %0, i64 56
  %18 = getelementptr inbounds nuw i8, ptr %17, i64 %7
  tail call void @llvm.memcpy.p0.p0.i64(ptr align 1 %1, ptr nonnull align 1 %18, i64 %spec.select, i1 false)
  %19 = load i64, ptr %6, align 8, !tbaa !24
  %20 = add i64 %19, %spec.select
  store i64 %20, ptr %6, align 8, !tbaa !24
  store i64 %spec.select, ptr %2, align 8, !tbaa !3
  br label %21

21:                                               ; preds = %14, %9
  %.019 = phi i32 [ %13, %9 ], [ 0, %14 ]
  ret i32 %.019
}